(dp1
S'OriginalConfig'
p2
ccopy_reg
_reconstructor
p3
(cWMCore.Configuration
Configuration
p4
c__builtin__
object
p5
NtRp6
(dp7
S'Site'
p8
g3
(cWMCore.Configuration
ConfigSection
p9
g5
NtRp10
(dp11
S'_internal_skipChecks'
p12
I00
sS'_internal_documentation'
p13
S''
sS'_internal_settings'
p14
c__builtin__
set
p15
((lp16
S'storageSite'
p17
atRp18
sS'_internal_name'
p19
g8
sS'_internal_docstrings'
p20
(dp21
sS'_internal_children'
p22
g15
((ltRp23
sg17
S'T3_US_FNALLPC'
p24
sS'_internal_parent_ref'
p25
NsbsS'_internal_sections'
p26
(lp27
S'General'
p28
aS'JobType'
p29
aS'Data'
p30
ag8
aS'User'
p31
aS'Debug'
p32
asg28
g3
(g9
g5
NtRp33
(dp34
g12
I00
sg13
S''
sg14
g15
((lp35
S'transferOutputs'
p36
aS'workArea'
p37
aS'requestName'
p38
atRp39
sg19
g28
sg20
(dp40
sg36
I01
sg22
g15
((ltRp41
sg38
S'Suu_clusteringAlgorithm_0000'
p42
sg25
Nsg37
S'crab_projects'
p43
sbsS'_internal_webapps'
p44
(lp45
sg31
g3
(g9
g5
NtRp46
(dp47
g12
I00
sg13
S''
sg14
g15
((ltRp48
sg19
g31
sg20
(dp49
sg22
g15
((ltRp50
sg25
NsbsS'_internal_components'
p51
(lp52
sg32
g3
(g9
g5
NtRp53
(dp54
g12
I00
sg13
S''
sg14
g15
((ltRp55
sg19
g32
sg20
(dp56
sg22
g15
((ltRp57
sg25
Nsbsg30
g3
(g9
g5
NtRp58
(dp59
S'inputDataset'
p60
S'/SuuToWbht/ecannaer-CRAB_diquark_MC_prod_chi1TeV_Suu5TeV_MINIAOD-0bd58594e6ade05f64e0c3a8301c3139/USER'
p61
sS'outputDatasetTag'
p62
S'diquark_5TeV_chi1TeV_clustAlg'
p63
sg12
I00
sS'splitting'
p64
S'FileBased'
p65
sS'unitsPerJob'
p66
I1
sg13
S''
sg14
g15
((lp67
g60
ag62
aS'publication'
p68
ag66
ag64
aS'inputDBS'
p69
atRp70
sg19
g30
sg69
S'phys03'
p71
sg20
(dp72
sg22
g15
((ltRp73
sg25
Nsg68
I00
sbsg29
g3
(g9
g5
NtRp74
(dp75
g12
I00
sg13
S''
sg14
g15
((lp76
S'psetName'
p77
aS'pluginName'
p78
aS'inputFiles'
p79
aS'allowUndistributedCMSSW'
p80
atRp81
sg19
g29
sg20
(dp82
sg78
S'Analysis'
p83
sg22
g15
((ltRp84
sg80
I01
sg77
S'clusteringAnalyzer_cfg.py'
p85
sg25
Nsg79
(lp86
S'file:Thrust.h'
p87
aS'file:analyzers/analyzers/src/Thrust.cc'
p88
asbsbsS'voGroup'
p89
S''
sS'Server'
p90
S'cmsweb-k8s-prod.cern.ch'
p91
sS'instance'
p92
S'prod'
p93
sS'RequestName'
p94
V210222_115858:ecannaer_crab_Suu_clusteringAlgorithm_0000
p95
sS'voRole'
p96
S'NULL'
p97
sS'Port'
p98
S''
s.