ccopy_reg
_reconstructor
p0
(cFWCore.ParameterSet.Config
Process
p1
c__builtin__
object
p2
Ntp3
Rp4
(dp5
S'MessageLogger'
p6
g0
(cFWCore.ParameterSet.Modules
Service
p7
g2
Ntp8
Rp9
(dp10
S'_isFrozen'
p11
I00
sS'suppressInfo'
p12
g0
(cFWCore.ParameterSet.Types
vstring
p13
c__builtin__
list
p14
(lp15
tp16
Rp17
(dp18
g11
I00
sS'_ParameterTypeBase__isTracked'
p19
I00
sS'_isModified'
p20
I00
sS'_nPerLine'
p21
I1
sbsS'suppressDebug'
p22
g0
(g13
g14
(lp23
tp24
Rp25
(dp26
g11
I00
sg19
I00
sg20
I00
sg21
I1
sbsS'cout'
p27
g0
(cFWCore.ParameterSet.Types
PSet
p28
g2
Ntp29
Rp30
(dp31
g11
I00
sg19
I00
sS'placeholder'
p32
g0
(cFWCore.ParameterSet.Types
bool
p33
g2
Ntp34
Rp35
(dp36
g11
I00
sg19
I00
sS'_value'
p37
I01
sg20
I00
sbsg20
I00
sS'_Parameterizable__parameterNames'
p38
(lp39
g32
asbsS'_lineNumber'
p40
I11
sS'debugModules'
p41
g0
(g13
g14
(lp42
tp43
Rp44
(dp45
g11
I00
sg19
I00
sg20
I00
sg21
I1
sbsS'_TypedParameterizable__type'
p46
g6
sS'fwkJobReports'
p47
g0
(g13
g14
(lp48
S'FrameworkJobReport'
p49
atp50
Rp51
(dp52
g11
I00
sg19
I00
sg20
I00
sg21
I1
sbsg38
(lp53
g12
aS'debugs'
p54
ag22
ag27
aS'cerr_stats'
p55
aS'warnings'
p56
aS'default'
p57
aS'statistics'
p58
aS'cerr'
p59
ag49
aS'suppressWarning'
p60
aS'errors'
p61
aS'destinations'
p62
ag41
aS'infos'
p63
aS'categories'
p64
ag47
asg58
g0
(g13
g14
(lp65
g55
atp66
Rp67
(dp68
g11
I00
sg19
I00
sg20
I00
sg21
I1
sbsS'_filename'
p69
S'/cvmfs/cms.cern.ch/slc7_amd64_gcc700/cms/cmssw/CMSSW_10_2_15/python/FWCore/ParameterSet/Modules.py'
p70
sg62
g0
(g13
g14
(lp71
g56
ag61
ag63
ag54
ag27
ag59
atp72
Rp73
(dp74
g11
I00
sg19
I00
sg20
I00
sg21
I1
sbsg54
g0
(g28
g2
Ntp75
Rp76
(dp77
g11
I00
sg19
I00
sg32
g0
(g33
g2
Ntp78
Rp79
(dp80
g11
I00
sg19
I00
sg37
I01
sg20
I00
sbsg20
I00
sg38
(lp81
g32
asbsg56
g0
(g28
g2
Ntp82
Rp83
(dp84
g11
I00
sg19
I00
sg32
g0
(g33
g2
Ntp85
Rp86
(dp87
g11
I00
sg19
I00
sg37
I01
sg20
I00
sbsg20
I00
sg38
(lp88
g32
asbsg61
g0
(g28
g2
Ntp89
Rp90
(dp91
g11
I00
sg19
I00
sg32
g0
(g33
g2
Ntp92
Rp93
(dp94
g11
I00
sg19
I00
sg37
I01
sg20
I00
sbsg20
I00
sg38
(lp95
g32
asbsg49
g0
(g28
g2
Ntp96
Rp97
(dp98
g11
I00
sg19
I00
sg20
I00
sg57
g0
(g28
g2
Ntp99
Rp100
(dp101
g11
I00
sg19
I00
sS'limit'
p102
g0
(cFWCore.ParameterSet.Types
int32
p103
g2
Ntp104
Rp105
(dp106
g11
I00
sg19
I00
sg37
I0
sg20
I00
sbsg20
I00
sg38
(lp107
g102
asbsS'FwkJob'
p108
g0
(g28
g2
Ntp109
Rp110
(dp111
g11
I00
sg19
I00
sg20
I00
sg102
g0
(g103
g2
Ntp112
Rp113
(dp114
g11
I00
sg19
I00
sg37
I10000000
sg20
I00
sbsg38
(lp115
S'optionalPSet'
p116
ag102
asg116
g0
(g33
g2
Ntp117
Rp118
(dp119
g11
I00
sg19
I00
sg37
I01
sg20
I00
sbsbsg38
(lp120
g57
ag116
ag108
asg116
g0
(g33
g2
Ntp121
Rp122
(dp123
g11
I00
sg19
I00
sg37
I01
sg20
I00
sbsbsg60
g0
(g13
g14
(lp124
tp125
Rp126
(dp127
g11
I00
sg19
I00
sg20
I00
sg21
I1
sbsg63
g0
(g28
g2
Ntp128
Rp129
(dp130
g11
I00
sg19
I00
sg20
I00
sS'Root_NoDictionary'
p131
g0
(g28
g2
Ntp132
Rp133
(dp134
g11
I00
sg19
I00
sg20
I00
sg102
g0
(g103
g2
Ntp135
Rp136
(dp137
g11
I00
sg19
I00
sg37
I0
sg20
I00
sbsg38
(lp138
g116
ag102
asg116
g0
(g33
g2
Ntp139
Rp140
(dp141
g11
I00
sg19
I00
sg37
I01
sg20
I00
sbsbsg38
(lp142
g116
ag131
ag32
asg116
g0
(g33
g2
Ntp143
Rp144
(dp145
g11
I00
sg19
I00
sg37
I01
sg20
I00
sbsg32
g0
(g33
g2
Ntp146
Rp147
(dp148
g11
I00
sg19
I00
sg37
I01
sg20
I00
sbsbsg64
g0
(g13
g14
(lp149
g108
aS'FwkReport'
p150
aS'FwkSummary'
p151
ag131
atp152
Rp153
(dp154
g11
I00
sg19
I00
sg20
I00
sg21
I1
sbsg20
I00
sg55
g0
(g28
g2
Ntp155
Rp156
(dp157
g11
I00
sg19
I00
sg20
I00
sg116
g0
(g33
g2
Ntp158
Rp159
(dp160
g11
I00
sg19
I00
sg37
I01
sg20
I00
sbsg38
(lp161
S'threshold'
p162
aS'output'
p163
ag116
asg162
g0
(cFWCore.ParameterSet.Types
string
p164
g2
Ntp165
Rp166
(dp167
g11
I00
sg19
I00
sg37
S'WARNING'
p168
sg20
I00
sbsg163
g0
(g164
g2
Ntp169
Rp170
(dp171
g11
I00
sg19
I00
sg37
g59
sg20
I00
sbsbsg57
g0
(g28
g2
Ntp172
Rp173
(dp174
g11
I00
sg19
I00
sg20
I00
sg38
(lp175
sbsS'_inProcess'
p176
I01
sg59
g0
(g28
g2
Ntp177
Rp178
(dp179
g11
I00
sg19
I00
sS'noTimeStamps'
p180
g0
(g33
g2
Ntp181
Rp182
(dp183
g11
I00
sg19
I00
sg37
I00
sg20
I00
sbsg150
g0
(g28
g2
Ntp184
Rp185
(dp186
g11
I00
sg19
I00
sg20
I01
sS'reportEvery'
p187
g0
(g103
g2
Ntp188
Rp189
(dp190
g11
I00
sg19
I00
sg37
I1000
sg20
I01
sbsg102
g0
(g103
g2
Ntp191
Rp192
(dp193
g11
I00
sg19
I00
sg37
I10000000
sg20
I00
sbsg38
(lp194
g187
ag116
ag102
asg116
g0
(g33
g2
Ntp195
Rp196
(dp197
g11
I00
sg19
I00
sg37
I01
sg20
I00
sbsbsg20
I00
sg57
g0
(g28
g2
Ntp198
Rp199
(dp200
g11
I00
sg19
I00
sg102
g0
(g103
g2
Ntp201
Rp202
(dp203
g11
I00
sg19
I00
sg37
I10000000
sg20
I00
sbsg20
I00
sg38
(lp204
g102
asbsg131
g0
(g28
g2
Ntp205
Rp206
(dp207
g11
I00
sg19
I00
sg20
I00
sg102
g0
(g103
g2
Ntp208
Rp209
(dp210
g11
I00
sg19
I00
sg37
I0
sg20
I00
sbsg38
(lp211
g116
ag102
asg116
g0
(g33
g2
Ntp212
Rp213
(dp214
g11
I00
sg19
I00
sg37
I01
sg20
I00
sbsbsS'INFO'
p215
g0
(g28
g2
Ntp216
Rp217
(dp218
g11
I00
sg19
I00
sg102
g0
(g103
g2
Ntp219
Rp220
(dp221
g11
I00
sg19
I00
sg37
I0
sg20
I00
sbsg20
I00
sg38
(lp222
g102
asbsg116
g0
(g33
g2
Ntp223
Rp224
(dp225
g11
I00
sg19
I00
sg37
I01
sg20
I00
sbsg108
g0
(g28
g2
Ntp226
Rp227
(dp228
g11
I00
sg19
I00
sg20
I00
sg102
g0
(g103
g2
Ntp229
Rp230
(dp231
g11
I00
sg19
I00
sg37
I0
sg20
I00
sbsg38
(lp232
g116
ag102
asg116
g0
(g33
g2
Ntp233
Rp234
(dp235
g11
I00
sg19
I00
sg37
I01
sg20
I00
sbsbsg151
g0
(g28
g2
Ntp236
Rp237
(dp238
g11
I00
sg19
I00
sg20
I00
sg187
g0
(g103
g2
Ntp239
Rp240
(dp241
g11
I00
sg19
I00
sg37
I1
sg20
I00
sbsg102
g0
(g103
g2
Ntp242
Rp243
(dp244
g11
I00
sg19
I00
sg37
I10000000
sg20
I00
sbsg38
(lp245
g187
ag116
ag102
asg116
g0
(g33
g2
Ntp246
Rp247
(dp248
g11
I00
sg19
I00
sg37
I01
sg20
I00
sbsbsg38
(lp249
g215
ag180
ag150
ag57
ag131
ag162
ag108
ag151
ag116
asg162
g0
(g164
g2
Ntp250
Rp251
(dp252
g11
I00
sg19
I00
sg37
g215
sg20
I00
sbsbsbsS'_Process__sequences'
p253
(dp254
sS'p'
p255
g0
(cFWCore.ParameterSet.SequenceTypes
Path
p256
g2
Ntp257
Rp258
(dp259
g11
I00
sS'_seq'
p260
g0
(cFWCore.ParameterSet.SequenceTypes
_SequenceCollection
p261
g2
Ntp262
Rp263
(dp264
S'_collection'
p265
(lp266
g0
(cFWCore.ParameterSet.Modules
EDAnalyzer
p267
g2
Ntp268
Rp269
(dp270
g38
(lp271
S'genPartCollection'
p272
aS'fatJetCollection'
p273
aS'bits'
p274
asg11
I00
sg20
I00
sg40
I12
sg69
S'/uscms_data/d3/cannaert/analysis/CMSSW_10_2_15/src/diquarkAnalyzer_cfg.py'
p275
sg272
g0
(cFWCore.ParameterSet.Types
InputTag
p276
g2
Ntp277
Rp278
(dp279
g11
I00
sg19
I01
sg20
I00
sS'_InputTag__moduleLabel'
p280
S'prunedGenParticles'
p281
sS'_InputTag__processName'
p282
S''
p283
sS'_InputTag__productInstance'
p284
g283
sbsS'_Labelable__label'
p285
S'diquarkAnalyzer'
p286
sg273
g0
(g276
g2
Ntp287
Rp288
(dp289
g11
I00
sg19
I01
sg20
I00
sg280
S'slimmedJetsAK8'
p290
sg282
g283
sg284
g283
sbsg274
g0
(g276
g2
Ntp291
Rp292
(dp293
g11
I00
sg19
I01
sg20
I00
sg280
S'TriggerResults'
p294
sg282
S'HLT'
p295
sg284
g283
sbsg46
g286
sbasbsg285
g255
sg20
I00
sS'_tasks'
p296
g0
(cFWCore.ParameterSet.OrderedSet
OrderedSet
p297
g2
Ntp298
Rp299
(dp300
S'map'
p301
(dp302
sS'end'
p303
(lp304
Nag304
ag304
asbsbsS'_Process__services'
p305
(dp306
g6
g9
sS'TFileService'
p307
g0
(g7
g2
Ntp308
Rp309
(dp310
g38
(lp311
S'fileName'
p312
asg11
I00
sg176
I01
sg20
I00
sg40
I11
sg69
g70
sg312
g0
(g164
g2
Ntp313
Rp314
(dp315
g11
I00
sg19
I01
sg37
S'diquark_850GeV_Suu4TeV_output.root'
p316
sg20
I00
sbsg46
g307
sbssS'_Process__source'
p317
g0
(cFWCore.ParameterSet.Modules
Source
p318
g2
Ntp319
Rp320
(dp321
g38
(lp322
S'fileNames'
p323
asg11
I00
sg20
I00
sg40
I193
sg69
g70
sg323
g0
(g13
g14
(lp324
S'file:B2G-RunIIAutumn18MiniAOD-00001.root'
p325
atp326
Rp327
(dp328
g11
I00
sg19
I00
sg20
I00
sg21
I1
sbsg46
S'PoolSource'
p329
sbsS'StripCPEfromTrackAngleESProducer'
p330
g0
(cFWCore.ParameterSet.Modules
ESProducer
p331
g2
Ntp332
Rp333
(dp334
g38
(lp335
S'ComponentType'
p336
aS'ComponentName'
p337
aS'parameters'
p338
asg11
I00
sg20
I01
sg338
g0
(g28
g2
Ntp339
Rp340
(dp341
g11
I00
sg19
I01
sS'maxChgOneMIP'
p342
g0
(cFWCore.ParameterSet.Types
double
p343
g2
Ntp344
Rp345
(dp346
g11
I00
sg19
I01
sg37
F6000.0
sg20
I00
sbsS'mLC_P2'
p347
g0
(g343
g2
Ntp348
Rp349
(dp350
g11
I00
sg19
I01
sg37
F0.3
sg20
I00
sbsS'mLC_P1'
p351
g0
(g343
g2
Ntp352
Rp353
(dp354
g11
I00
sg19
I01
sg37
F0.618
sg20
I00
sbsS'mLC_P0'
p355
g0
(g343
g2
Ntp356
Rp357
(dp358
g11
I00
sg19
I01
sg37
F-0.326
sg20
I00
sbsS'useLegacyError'
p359
g0
(g33
g2
Ntp360
Rp361
(dp362
g11
I00
sg19
I01
sg37
I00
sg20
I00
sbsS'mTIB_P1'
p363
g0
(g343
g2
Ntp364
Rp365
(dp366
g11
I00
sg19
I01
sg37
F0.202
sg20
I00
sbsS'mTEC_P1'
p367
g0
(g343
g2
Ntp368
Rp369
(dp370
g11
I00
sg19
I01
sg37
F0.471
sg20
I00
sbsS'mTEC_P0'
p371
g0
(g343
g2
Ntp372
Rp373
(dp374
g11
I00
sg19
I01
sg37
F-1.885
sg20
I00
sbsS'mTOB_P0'
p375
g0
(g343
g2
Ntp376
Rp377
(dp378
g11
I00
sg19
I01
sg37
F-1.026
sg20
I00
sbsS'mTOB_P1'
p379
g0
(g343
g2
Ntp380
Rp381
(dp382
g11
I00
sg19
I01
sg37
F0.253
sg20
I00
sbsS'mTIB_P0'
p383
g0
(g343
g2
Ntp384
Rp385
(dp386
g11
I00
sg19
I01
sg37
F-0.742
sg20
I00
sbsg38
(lp387
g342
ag347
ag351
ag355
ag359
ag367
ag371
ag375
ag379
ag383
ag363
aS'mTID_P0'
p388
aS'mTID_P1'
p389
asg388
g0
(g343
g2
Ntp390
Rp391
(dp392
g11
I00
sg19
I01
sg37
F-1.427
sg20
I00
sbsg389
g0
(g343
g2
Ntp393
Rp394
(dp395
g11
I00
sg19
I01
sg37
F0.433
sg20
I00
sbsg20
I00
sbsg40
I4
sg337
g0
(g164
g2
Ntp396
Rp397
(dp398
g11
I00
sg19
I01
sg37
S'StripCPEfromTrackAngle'
p399
sg20
I00
sbsg336
g0
(g164
g2
Ntp400
Rp401
(dp402
g11
I00
sg19
I01
sg37
g399
sg20
I00
sbsg69
S'/cvmfs/cms.cern.ch/slc7_amd64_gcc700/cms/cmssw/CMSSW_10_2_15/python/RecoLocalTracker/SiStripRecHitConverter/StripCPEfromTrackAngle_cfi.py'
p403
sg285
g330
sg46
S'StripCPEESProducer'
p404
sbsS'_Process__aliases'
p405
(dp406
sS'siStripBackPlaneCorrectionDepESProducer'
p407
g0
(g331
g2
Ntp408
Rp409
(dp410
g38
(lp411
S'LatencyRecord'
p412
aS'BackPlaneCorrectionDeconvMode'
p413
aS'BackPlaneCorrectionPeakMode'
p414
asg11
I00
sg20
I00
sg40
I53
sg69
g70
sg412
g0
(g28
g2
Ntp415
Rp416
(dp417
g11
I00
sg19
I01
sg20
I00
sS'label'
p418
g0
(g164
g2
Ntp419
Rp420
(dp421
g11
I00
sg19
I00
sg37
g283
sg20
I00
sbsS'record'
p422
g0
(g164
g2
Ntp423
Rp424
(dp425
g11
I00
sg19
I01
sg37
S'SiStripLatencyRcd'
p426
sg20
I00
sbsg38
(lp427
g422
ag418
asbsg414
g0
(g28
g2
Ntp428
Rp429
(dp430
g11
I00
sg19
I01
sg20
I00
sg418
g0
(g164
g2
Ntp431
Rp432
(dp433
g11
I00
sg19
I00
sg37
S'peak'
p434
sg20
I00
sbsg422
g0
(g164
g2
Ntp435
Rp436
(dp437
g11
I00
sg19
I01
sg37
S'SiStripBackPlaneCorrectionRcd'
p438
sg20
I00
sbsg38
(lp439
g422
ag418
asbsg285
g407
sg413
g0
(g28
g2
Ntp440
Rp441
(dp442
g11
I00
sg19
I01
sg20
I00
sg418
g0
(g164
g2
Ntp443
Rp444
(dp445
g11
I00
sg19
I00
sg37
S'deconvolution'
p446
sg20
I00
sbsg422
g0
(g164
g2
Ntp447
Rp448
(dp449
g11
I00
sg19
I01
sg37
g438
sg20
I00
sbsg38
(lp450
g422
ag418
asbsg46
S'SiStripBackPlaneCorrectionDepESProducer'
p451
sbsS'HFRecalParameterBlock'
p452
g0
(g28
g2
Ntp453
Rp454
(dp455
g11
I00
sg19
I01
sg20
I00
sS'HFdepthTwoParameterA'
p456
g0
(cFWCore.ParameterSet.Types
vdouble
p457
g14
(lp458
F0.002861
aF0.004168
aF0.0064
aF0.008388
aF0.011601
aF0.014425
aF0.018633
aF0.023232
aF0.028274
aF0.035447
aF0.051579
aF0.086593
atp459
Rp460
(dp461
g11
I00
sg19
I01
sg20
I00
sbsS'HFdepthOneParameterA'
p462
g0
(g457
g14
(lp463
F0.004123
aF0.00602
aF0.008201
aF0.010489
aF0.013379
aF0.016997
aF0.021464
aF0.027371
aF0.034195
aF0.044807
aF0.058939
aF0.125497
atp464
Rp465
(dp466
g11
I00
sg19
I01
sg20
I00
sbsS'HFdepthOneParameterB'
p467
g0
(g457
g14
(lp468
F-4e-06
aF-2e-06
aF0.0
aF4e-06
aF1.5e-05
aF2.6e-05
aF6.3e-05
aF8.4e-05
aF0.00016
aF0.000107
aF0.000425
aF0.000209
atp469
Rp470
(dp471
g11
I00
sg19
I01
sg20
I00
sbsS'HFdepthTwoParameterB'
p472
g0
(g457
g14
(lp473
F-2e-06
aF-0.0
aF-7e-06
aF-6e-06
aF-2e-06
aF1e-06
aF1.9e-05
aF3.1e-05
aF6.7e-05
aF1.2e-05
aF0.000157
aF-3e-06
atp474
Rp475
(dp476
g11
I00
sg19
I01
sg20
I00
sbsg38
(lp477
g462
ag467
ag472
ag456
asg285
g452
sbsS'stripCPEESProducer'
p478
g0
(g331
g2
Ntp479
Rp480
(dp481
g38
(lp482
g336
ag337
ag338
asg11
I00
sg20
I00
sg338
g0
(g28
g2
Ntp483
Rp484
(dp485
g11
I00
sg19
I01
sg20
I00
sg38
(lp486
sbsg40
I53
sg337
g0
(g164
g2
Ntp487
Rp488
(dp489
g11
I00
sg19
I01
sg37
S'stripCPE'
p490
sg20
I00
sbsg336
g0
(g164
g2
Ntp491
Rp492
(dp493
g11
I00
sg19
I01
sg37
S'SimpleStripCPE'
p494
sg20
I00
sbsg69
g70
sg285
g478
sg46
g404
sbsS'EcalLaserCorrectionService'
p495
g0
(g331
g2
Ntp496
Rp497
(dp498
g38
(lp499
sg11
I00
sg20
I00
sg40
I53
sg69
g70
sg285
g495
sg46
g495
sbsS'_Process__psets'
p500
(dp501
S'maxEvents'
p502
g0
(g28
g2
Ntp503
Rp504
(dp505
g11
I00
sg19
I00
sg20
I00
sg38
(lp506
S'input'
p507
asg285
g502
sg507
g0
(g103
g2
Ntp508
Rp509
(dp510
g11
I00
sg19
I00
sg37
I5000000
sg20
I00
sbsbsg452
g454
sS'options'
p511
g0
(g28
g2
Ntp512
Rp513
(dp514
g11
I00
sg19
I00
sg20
I00
sS'wantSummary'
p515
g0
(g33
g2
Ntp516
Rp517
(dp518
g11
I00
sg19
I00
sg37
I01
sg20
I00
sbsg38
(lp519
g515
asg285
g511
sbssS'hcal_db_producer'
p520
g0
(g331
g2
Ntp521
Rp522
(dp523
g38
(lp524
S'file'
p525
aS'dump'
p526
asg11
I00
sg20
I00
sg526
g0
(g13
g14
(lp527
g283
atp528
Rp529
(dp530
g11
I00
sg19
I00
sg20
I00
sg21
I1
sbsg40
I53
sg69
g70
sg525
g0
(g164
g2
Ntp531
Rp532
(dp533
g11
I00
sg19
I00
sg37
g283
sg20
I00
sbsg285
g520
sg46
S'HcalDbProducer'
p534
sbsg307
g309
sS'_Process__essources'
p535
(dp536
S'HepPDTESSource'
p537
g0
(cFWCore.ParameterSet.Modules
ESSource
p538
g2
Ntp539
Rp540
(dp541
g38
(lp542
S'pdtFileName'
p543
asg11
I00
sg543
g0
(cFWCore.ParameterSet.Types
FileInPath
p544
g2
Ntp545
Rp546
(dp547
g11
I00
sg19
I01
sg37
S'SimGeneral/HepPDTESSource/data/pythiaparticle.tbl'
p548
sg20
I00
sbsg20
I00
sg40
I4
sg69
S'/cvmfs/cms.cern.ch/slc7_amd64_gcc700/cms/cmssw/CMSSW_10_2_15/python/SimGeneral/HepPDTESSource/pythiapdt_cfi.py'
p549
sg285
g537
sg46
g537
sbsS'es_hardcode'
p550
g0
(g538
g2
Ntp551
Rp552
(dp553
g11
I00
sg40
I172
sS'useHEUpgrade'
p554
g0
(g33
g2
Ntp555
Rp556
(dp557
g11
I00
sg19
I01
sg37
I00
sg20
I00
sbsS'HBRecalibration'
p558
g0
(g33
g2
Ntp559
Rp560
(dp561
g11
I00
sg19
I01
sg37
I00
sg20
I00
sbsS'useLayer0Weight'
p562
g0
(g33
g2
Ntp563
Rp564
(dp565
g11
I00
sg19
I01
sg37
I00
sg20
I00
sbsS'HEmeanenergies'
p566
g0
(g544
g2
Ntp567
Rp568
(dp569
g11
I00
sg19
I01
sg37
S'CalibCalorimetry/HcalPlugins/data/meanenergiesHE.txt'
p570
sg20
I00
sbsg452
g454
sS'heUpgrade'
p571
g0
(g28
g2
Ntp572
Rp573
(dp574
g11
I00
sg19
I01
sS'qieType'
p575
g0
(g103
g2
Ntp576
Rp577
(dp578
g11
I00
sg19
I01
sg37
I2
sg20
I00
sbsg20
I00
sS'pedestalWidth'
p579
g0
(g343
g2
Ntp580
Rp581
(dp582
g11
I00
sg19
I01
sg37
F1.5
sg20
I00
sbsS'recoShape'
p583
g0
(g103
g2
Ntp584
Rp585
(dp586
g11
I00
sg19
I01
sg37
I206
sg20
I00
sbsS'zsThreshold'
p587
g0
(g103
g2
Ntp588
Rp589
(dp590
g11
I00
sg19
I01
sg37
I16
sg20
I00
sbsS'darkCurrent'
p591
g0
(g457
g14
(lp592
F0.01
aF0.015
atp593
Rp594
(dp595
g11
I00
sg19
I01
sg20
I00
sbsS'qieOffset'
p596
g0
(g457
g14
(lp597
F0.0
aF0.0
aF0.0
aF0.0
atp598
Rp599
(dp600
g11
I00
sg19
I01
sg20
I00
sbsS'qieSlope'
p601
g0
(g457
g14
(lp602
F0.05376
aF0.05376
aF0.05376
aF0.05376
atp603
Rp604
(dp605
g11
I00
sg19
I01
sg20
I00
sbsS'radiationDamage'
p606
g0
(g28
g2
Ntp607
Rp608
(dp609
g11
I00
sg19
I01
sS'temperatureNew'
p610
g0
(g343
g2
Ntp611
Rp612
(dp613
g11
I00
sg19
I01
sg37
I5
sg20
I00
sbsg20
I00
sS'depVsNeutrons'
p614
g0
(g457
g14
(lp615
F5.543e-10
aF8.012e-10
atp616
Rp617
(dp618
g11
I00
sg19
I01
sg20
I00
sbsS'temperatureBase'
p619
g0
(g343
g2
Ntp620
Rp621
(dp622
g11
I00
sg19
I01
sg37
I20
sg20
I00
sbsS'depVsTemp'
p623
g0
(g343
g2
Ntp624
Rp625
(dp626
g11
I00
sg19
I01
sg37
F0.0631
sg20
I00
sbsS'intlumiOffset'
p627
g0
(g343
g2
Ntp628
Rp629
(dp630
g11
I00
sg19
I01
sg37
I75
sg20
I00
sbsg38
(lp631
g610
ag614
ag619
ag623
ag627
aS'intlumiToNeutrons'
p632
asg632
g0
(g343
g2
Ntp633
Rp634
(dp635
g11
I00
sg19
I01
sg37
F29200000.0
sg20
I00
sbsbsS'doRadiationDamage'
p636
g0
(g33
g2
Ntp637
Rp638
(dp639
g11
I00
sg19
I01
sg37
I01
sg20
I00
sbsg38
(lp640
g575
ag579
ag583
ag587
aS'photoelectronsToAnalog'
p641
ag596
ag601
ag606
ag636
ag591
aS'pedestal'
p642
aS'mcShape'
p643
aS'gainWidth'
p644
aS'gain'
p645
asg641
g0
(g343
g2
Ntp646
Rp647
(dp648
g11
I00
sg19
I01
sg37
F40.0
sg20
I00
sbsg642
g0
(g343
g2
Ntp649
Rp650
(dp651
g11
I00
sg19
I01
sg37
F17.3
sg20
I00
sbsg643
g0
(g103
g2
Ntp652
Rp653
(dp654
g11
I00
sg19
I01
sg37
I206
sg20
I00
sbsg644
g0
(g457
g14
(lp655
I0
atp656
Rp657
(dp658
g11
I00
sg19
I01
sg20
I00
sbsg645
g0
(g457
g14
(lp659
F0.0006252
atp660
Rp661
(dp662
g11
I00
sg19
I01
sg20
I00
sbsbsg38
(lp663
S'toGet'
p664
ag558
ag562
ag566
ag452
ag571
aS'useIeta18depth1'
p665
aS'killHE'
p666
aS'useHBUpgrade'
p667
aS'hbUpgrade'
p668
aS'testHEPlan1'
p669
aS'iLumi'
p670
aS'testHFQIE10'
p671
aS'HBmeanenergies'
p672
ag554
aS'GainWidthsForTrigPrims'
p673
aS'HBreCalibCutoff'
p674
aS'HFRecalibration'
p675
aS'ho'
p676
aS'hb'
p677
aS'hf'
p678
aS'he'
p679
aS'HERecalibration'
p680
aS'useHFUpgrade'
p681
aS'HEreCalibCutoff'
p682
aS'SiPMCharacteristics'
p683
aS'useHOUpgrade'
p684
aS'hfUpgrade'
p685
asg69
S'/cvmfs/cms.cern.ch/slc7_amd64_gcc700/cms/cmssw/CMSSW_10_2_15/python/CalibCalorimetry/HcalPlugins/Hcal_Conditions_forGlobalTag_cff.py'
p686
sg665
g0
(g33
g2
Ntp687
Rp688
(dp689
g11
I00
sg19
I01
sg37
I01
sg20
I00
sbsg666
g0
(g33
g2
Ntp690
Rp691
(dp692
g11
I00
sg19
I01
sg37
I00
sg20
I00
sbsg667
g0
(g33
g2
Ntp693
Rp694
(dp695
g11
I00
sg19
I01
sg37
I00
sg20
I00
sbsg668
g0
(g28
g2
Ntp696
Rp697
(dp698
g11
I00
sg19
I01
sg575
g0
(g103
g2
Ntp699
Rp700
(dp701
g11
I00
sg19
I01
sg37
I2
sg20
I00
sbsg20
I00
sg579
g0
(g343
g2
Ntp702
Rp703
(dp704
g11
I00
sg19
I01
sg37
F1.5
sg20
I00
sbsg583
g0
(g103
g2
Ntp705
Rp706
(dp707
g11
I00
sg19
I01
sg37
I206
sg20
I00
sbsg587
g0
(g103
g2
Ntp708
Rp709
(dp710
g11
I00
sg19
I01
sg37
I16
sg20
I00
sbsg591
g0
(g457
g14
(lp711
F0.01
aF0.015
atp712
Rp713
(dp714
g11
I00
sg19
I01
sg20
I00
sbsg596
g0
(g457
g14
(lp715
F0.0
aF0.0
aF0.0
aF0.0
atp716
Rp717
(dp718
g11
I00
sg19
I01
sg20
I00
sbsg601
g0
(g457
g14
(lp719
F0.05376
aF0.05376
aF0.05376
aF0.05376
atp720
Rp721
(dp722
g11
I00
sg19
I01
sg20
I00
sbsg606
g0
(g28
g2
Ntp723
Rp724
(dp725
g11
I00
sg19
I01
sg610
g0
(g343
g2
Ntp726
Rp727
(dp728
g11
I00
sg19
I01
sg37
I-5
sg20
I00
sbsg20
I00
sg614
g0
(g457
g14
(lp729
F5.543e-10
aF8.012e-10
atp730
Rp731
(dp732
g11
I00
sg19
I01
sg20
I00
sbsg619
g0
(g343
g2
Ntp733
Rp734
(dp735
g11
I00
sg19
I01
sg37
I20
sg20
I00
sbsg623
g0
(g343
g2
Ntp736
Rp737
(dp738
g11
I00
sg19
I01
sg37
F0.0631
sg20
I00
sbsg627
g0
(g343
g2
Ntp739
Rp740
(dp741
g11
I00
sg19
I01
sg37
I150
sg20
I00
sbsg38
(lp742
g610
ag614
ag619
ag623
ag627
ag632
asg632
g0
(g343
g2
Ntp743
Rp744
(dp745
g11
I00
sg19
I01
sg37
F367000000.0
sg20
I00
sbsbsg636
g0
(g33
g2
Ntp746
Rp747
(dp748
g11
I00
sg19
I01
sg37
I01
sg20
I00
sbsg38
(lp749
g575
ag579
ag583
ag587
ag641
ag596
ag601
ag606
ag636
ag591
ag642
ag643
ag644
ag645
asg641
g0
(g343
g2
Ntp750
Rp751
(dp752
g11
I00
sg19
I01
sg37
F40.0
sg20
I00
sbsg642
g0
(g343
g2
Ntp753
Rp754
(dp755
g11
I00
sg19
I01
sg37
F17.3
sg20
I00
sbsg643
g0
(g103
g2
Ntp756
Rp757
(dp758
g11
I00
sg19
I01
sg37
I206
sg20
I00
sbsg644
g0
(g457
g14
(lp759
I0
atp760
Rp761
(dp762
g11
I00
sg19
I01
sg20
I00
sbsg645
g0
(g457
g14
(lp763
F0.0006252
atp764
Rp765
(dp766
g11
I00
sg19
I01
sg20
I00
sbsbsg46
S'HcalHardcodeCalibrations'
p767
sg669
g0
(g33
g2
Ntp768
Rp769
(dp770
g11
I00
sg19
I01
sg37
I00
sg20
I00
sbsg670
g0
(g343
g2
Ntp771
Rp772
(dp773
g11
I00
sg19
I01
sg37
F-1.0
sg20
I00
sbsg671
g0
(g33
g2
Ntp774
Rp775
(dp776
g11
I00
sg19
I01
sg37
I00
sg20
I00
sbsg672
g0
(g544
g2
Ntp777
Rp778
(dp779
g11
I00
sg19
I01
sg37
S'CalibCalorimetry/HcalPlugins/data/meanenergiesHB.txt'
p780
sg20
I00
sbsg664
g0
(g13
g14
(lp781
S'GainWidths'
p782
atp783
Rp784
(dp785
g11
I00
sg19
I00
sg20
I00
sg21
I1
sbsg673
g0
(g33
g2
Ntp786
Rp787
(dp788
g11
I00
sg19
I01
sg37
I00
sg20
I00
sbsg674
g0
(g343
g2
Ntp789
Rp790
(dp791
g11
I00
sg19
I01
sg37
F20.0
sg20
I00
sbsg675
g0
(g33
g2
Ntp792
Rp793
(dp794
g11
I00
sg19
I01
sg37
I00
sg20
I00
sbsg676
g0
(g28
g2
Ntp795
Rp796
(dp797
g11
I00
sg19
I01
sg575
g0
(g103
g2
Ntp798
Rp799
(dp800
g11
I00
sg19
I01
sg37
I0
sg20
I00
sbsg20
I00
sg579
g0
(g343
g2
Ntp801
Rp802
(dp803
g11
I00
sg19
I01
sg37
F0.6285
sg20
I00
sbsg583
g0
(g103
g2
Ntp804
Rp805
(dp806
g11
I00
sg19
I01
sg37
I201
sg20
I00
sbsg587
g0
(g103
g2
Ntp807
Rp808
(dp809
g11
I00
sg19
I01
sg37
I24
sg20
I00
sbsg591
g0
(g457
g14
(lp810
F0.0
atp811
Rp812
(dp813
g11
I00
sg19
I01
sg20
I00
sbsg596
g0
(g457
g14
(lp814
F-0.44
aF1.4
aF7.1
aF38.5
atp815
Rp816
(dp817
g11
I00
sg19
I01
sg20
I00
sbsg601
g0
(g457
g14
(lp818
F0.907
aF0.915
aF0.92
aF0.921
atp819
Rp820
(dp821
g11
I00
sg19
I01
sg20
I00
sbsg645
g0
(g457
g14
(lp822
F0.006
aF0.0087
atp823
Rp824
(dp825
g11
I00
sg19
I01
sg20
I00
sbsg636
g0
(g33
g2
Ntp826
Rp827
(dp828
g11
I00
sg19
I01
sg37
I00
sg20
I00
sbsg38
(lp829
g575
ag579
ag583
ag587
ag641
ag596
ag601
ag645
ag636
ag591
ag642
ag643
ag644
asg641
g0
(g343
g2
Ntp830
Rp831
(dp832
g11
I00
sg19
I01
sg37
F4.0
sg20
I00
sbsg642
g0
(g343
g2
Ntp833
Rp834
(dp835
g11
I00
sg19
I01
sg37
F12.06
sg20
I00
sbsg643
g0
(g103
g2
Ntp836
Rp837
(dp838
g11
I00
sg19
I01
sg37
I201
sg20
I00
sbsg644
g0
(g457
g14
(lp839
F0.0
aF0.0
atp840
Rp841
(dp842
g11
I00
sg19
I01
sg20
I00
sbsbsg677
g0
(g28
g2
Ntp843
Rp844
(dp845
g11
I00
sg19
I01
sg575
g0
(g103
g2
Ntp846
Rp847
(dp848
g11
I00
sg19
I01
sg37
I0
sg20
I00
sbsg20
I00
sg579
g0
(g343
g2
Ntp849
Rp850
(dp851
g11
I00
sg19
I01
sg37
F0.809
sg20
I00
sbsg583
g0
(g103
g2
Ntp852
Rp853
(dp854
g11
I00
sg19
I01
sg37
I105
sg20
I00
sbsg587
g0
(g103
g2
Ntp855
Rp856
(dp857
g11
I00
sg19
I01
sg37
I8
sg20
I00
sbsg591
g0
(g457
g14
(lp858
F0.0
atp859
Rp860
(dp861
g11
I00
sg19
I01
sg20
I00
sbsg596
g0
(g457
g14
(lp862
F-0.49
aF1.8
aF7.2
aF37.9
atp863
Rp864
(dp865
g11
I00
sg19
I01
sg20
I00
sbsg601
g0
(g457
g14
(lp866
F0.912
aF0.917
aF0.922
aF0.923
atp867
Rp868
(dp869
g11
I00
sg19
I01
sg20
I00
sbsg645
g0
(g457
g14
(lp870
F0.19
atp871
Rp872
(dp873
g11
I00
sg19
I01
sg20
I00
sbsg636
g0
(g33
g2
Ntp874
Rp875
(dp876
g11
I00
sg19
I01
sg37
I00
sg20
I00
sbsg38
(lp877
g575
ag579
ag583
ag587
ag641
ag596
ag601
ag645
ag636
ag591
ag642
ag643
ag644
asg641
g0
(g343
g2
Ntp878
Rp879
(dp880
g11
I00
sg19
I01
sg37
F0.3305
sg20
I00
sbsg642
g0
(g343
g2
Ntp881
Rp882
(dp883
g11
I00
sg19
I01
sg37
F3.285
sg20
I00
sbsg643
g0
(g103
g2
Ntp884
Rp885
(dp886
g11
I00
sg19
I01
sg37
I125
sg20
I00
sbsg644
g0
(g457
g14
(lp887
F0.0
atp888
Rp889
(dp890
g11
I00
sg19
I01
sg20
I00
sbsbsg678
g0
(g28
g2
Ntp891
Rp892
(dp893
g11
I00
sg19
I01
sg575
g0
(g103
g2
Ntp894
Rp895
(dp896
g11
I00
sg19
I01
sg37
I0
sg20
I00
sbsg20
I00
sg579
g0
(g343
g2
Ntp897
Rp898
(dp899
g11
I00
sg19
I01
sg37
F2.516
sg20
I00
sbsg583
g0
(g103
g2
Ntp900
Rp901
(dp902
g11
I00
sg19
I01
sg37
I301
sg20
I00
sbsg587
g0
(g103
g2
Ntp903
Rp904
(dp905
g11
I00
sg19
I01
sg37
I-9999
sg20
I00
sbsg591
g0
(g457
g14
(lp906
F0.0
atp907
Rp908
(dp909
g11
I00
sg19
I01
sg20
I00
sbsg596
g0
(g457
g14
(lp910
F-0.87
aF1.4
aF7.8
aF-29.6
atp911
Rp912
(dp913
g11
I00
sg19
I01
sg20
I00
sbsg601
g0
(g457
g14
(lp914
F0.359
aF0.358
aF0.36
aF0.367
atp915
Rp916
(dp917
g11
I00
sg19
I01
sg20
I00
sbsg645
g0
(g457
g14
(lp918
F0.14
aF0.135
atp919
Rp920
(dp921
g11
I00
sg19
I01
sg20
I00
sbsg636
g0
(g33
g2
Ntp922
Rp923
(dp924
g11
I00
sg19
I01
sg37
I00
sg20
I00
sbsg38
(lp925
g575
ag579
ag583
ag587
ag641
ag596
ag601
ag645
ag636
ag591
ag642
ag643
ag644
asg641
g0
(g343
g2
Ntp926
Rp927
(dp928
g11
I00
sg19
I01
sg37
F0.0
sg20
I00
sbsg642
g0
(g343
g2
Ntp929
Rp930
(dp931
g11
I00
sg19
I01
sg37
F9.354
sg20
I00
sbsg643
g0
(g103
g2
Ntp932
Rp933
(dp934
g11
I00
sg19
I01
sg37
I301
sg20
I00
sbsg644
g0
(g457
g14
(lp935
F0.0
aF0.0
atp936
Rp937
(dp938
g11
I00
sg19
I01
sg20
I00
sbsbsg679
g0
(g28
g2
Ntp939
Rp940
(dp941
g11
I00
sg19
I01
sg575
g0
(g103
g2
Ntp942
Rp943
(dp944
g11
I00
sg19
I01
sg37
I0
sg20
I00
sbsg20
I00
sg579
g0
(g343
g2
Ntp945
Rp946
(dp947
g11
I00
sg19
I01
sg37
F0.9698
sg20
I00
sbsg583
g0
(g103
g2
Ntp948
Rp949
(dp950
g11
I00
sg19
I01
sg37
I105
sg20
I00
sbsg587
g0
(g103
g2
Ntp951
Rp952
(dp953
g11
I00
sg19
I01
sg37
I9
sg20
I00
sbsg591
g0
(g457
g14
(lp954
F0.0
atp955
Rp956
(dp957
g11
I00
sg19
I01
sg20
I00
sbsg596
g0
(g457
g14
(lp958
F-0.38
aF2.0
aF7.6
aF39.6
atp959
Rp960
(dp961
g11
I00
sg19
I01
sg20
I00
sbsg601
g0
(g457
g14
(lp962
F0.912
aF0.916
aF0.92
aF0.922
atp963
Rp964
(dp965
g11
I00
sg19
I01
sg20
I00
sbsg645
g0
(g457
g14
(lp966
F0.23
atp967
Rp968
(dp969
g11
I00
sg19
I01
sg20
I00
sbsg636
g0
(g33
g2
Ntp970
Rp971
(dp972
g11
I00
sg19
I01
sg37
I00
sg20
I00
sbsg38
(lp973
g575
ag579
ag583
ag587
ag641
ag596
ag601
ag645
ag636
ag591
ag642
ag643
ag644
asg641
g0
(g343
g2
Ntp974
Rp975
(dp976
g11
I00
sg19
I01
sg37
F0.3305
sg20
I00
sbsg642
g0
(g343
g2
Ntp977
Rp978
(dp979
g11
I00
sg19
I01
sg37
F3.163
sg20
I00
sbsg643
g0
(g103
g2
Ntp980
Rp981
(dp982
g11
I00
sg19
I01
sg37
I125
sg20
I00
sbsg644
g0
(g457
g14
(lp983
I0
atp984
Rp985
(dp986
g11
I00
sg19
I01
sg20
I00
sbsbsg20
I00
sg680
g0
(g33
g2
Ntp987
Rp988
(dp989
g11
I00
sg19
I01
sg37
I00
sg20
I00
sbsg681
g0
(g33
g2
Ntp990
Rp991
(dp992
g11
I00
sg19
I01
sg37
I00
sg20
I00
sbsg682
g0
(g343
g2
Ntp993
Rp994
(dp995
g11
I00
sg19
I01
sg37
F20.0
sg20
I00
sbsg683
g0
(cFWCore.ParameterSet.Types
VPSet
p996
g14
(lp997
g0
(g28
g2
Ntp998
Rp999
(dp1000
g11
I00
sg19
I01
sg20
I00
sS'crosstalk'
p1001
g0
(g343
g2
Ntp1002
Rp1003
(dp1004
g11
I00
sg19
I01
sg37
F0.0
sg20
I00
sbsS'nonlin1'
p1005
g0
(g343
g2
Ntp1006
Rp1007
(dp1008
g11
I00
sg19
I01
sg37
F1.0
sg20
I00
sbsS'nonlin3'
p1009
g0
(g343
g2
Ntp1010
Rp1011
(dp1012
g11
I00
sg19
I01
sg37
F0.0
sg20
I00
sbsS'nonlin2'
p1013
g0
(g343
g2
Ntp1014
Rp1015
(dp1016
g11
I00
sg19
I01
sg37
F0.0
sg20
I00
sbsg38
(lp1017
g1005
ag1009
ag1013
aS'pixels'
p1018
ag1001
asg1018
g0
(g103
g2
Ntp1019
Rp1020
(dp1021
g11
I00
sg19
I01
sg37
I36000
sg20
I00
sbsbag0
(g28
g2
Ntp1022
Rp1023
(dp1024
g11
I00
sg19
I01
sg20
I00
sg1001
g0
(g343
g2
Ntp1025
Rp1026
(dp1027
g11
I00
sg19
I01
sg37
F0.0
sg20
I00
sbsg1005
g0
(g343
g2
Ntp1028
Rp1029
(dp1030
g11
I00
sg19
I01
sg37
F1.0
sg20
I00
sbsg1009
g0
(g343
g2
Ntp1031
Rp1032
(dp1033
g11
I00
sg19
I01
sg37
F0.0
sg20
I00
sbsg1013
g0
(g343
g2
Ntp1034
Rp1035
(dp1036
g11
I00
sg19
I01
sg37
F0.0
sg20
I00
sbsg38
(lp1037
g1005
ag1009
ag1013
ag1018
ag1001
asg1018
g0
(g103
g2
Ntp1038
Rp1039
(dp1040
g11
I00
sg19
I01
sg37
I2500
sg20
I00
sbsbag0
(g28
g2
Ntp1041
Rp1042
(dp1043
g11
I00
sg19
I01
sg20
I00
sg1001
g0
(g343
g2
Ntp1044
Rp1045
(dp1046
g11
I00
sg19
I01
sg37
F0.17
sg20
I00
sbsg1005
g0
(g343
g2
Ntp1047
Rp1048
(dp1049
g11
I00
sg19
I01
sg37
F1.00985
sg20
I00
sbsg1009
g0
(g343
g2
Ntp1050
Rp1051
(dp1052
g11
I00
sg19
I01
sg37
F2.86282e-10
sg20
I00
sbsg1013
g0
(g343
g2
Ntp1053
Rp1054
(dp1055
g11
I00
sg19
I01
sg37
F7.84089e-06
sg20
I00
sbsg38
(lp1056
g1005
ag1009
ag1013
ag1018
ag1001
asg1018
g0
(g103
g2
Ntp1057
Rp1058
(dp1059
g11
I00
sg19
I01
sg37
I27370
sg20
I00
sbsbag0
(g28
g2
Ntp1060
Rp1061
(dp1062
g11
I00
sg19
I01
sg20
I00
sg1001
g0
(g343
g2
Ntp1063
Rp1064
(dp1065
g11
I00
sg19
I01
sg37
F0.196
sg20
I00
sbsg1005
g0
(g343
g2
Ntp1066
Rp1067
(dp1068
g11
I00
sg19
I01
sg37
F1.00546
sg20
I00
sbsg1009
g0
(g343
g2
Ntp1069
Rp1070
(dp1071
g11
I00
sg19
I01
sg37
F1.27011e-10
sg20
I00
sbsg1013
g0
(g343
g2
Ntp1072
Rp1073
(dp1074
g11
I00
sg19
I01
sg37
F6.40239e-06
sg20
I00
sbsg38
(lp1075
g1005
ag1009
ag1013
ag1018
ag1001
asg1018
g0
(g103
g2
Ntp1076
Rp1077
(dp1078
g11
I00
sg19
I01
sg37
I38018
sg20
I00
sbsbag0
(g28
g2
Ntp1079
Rp1080
(dp1081
g11
I00
sg19
I01
sg20
I00
sg1001
g0
(g343
g2
Ntp1082
Rp1083
(dp1084
g11
I00
sg19
I01
sg37
F0.17
sg20
I00
sbsg1005
g0
(g343
g2
Ntp1085
Rp1086
(dp1087
g11
I00
sg19
I01
sg37
F1.00985
sg20
I00
sbsg1009
g0
(g343
g2
Ntp1088
Rp1089
(dp1090
g11
I00
sg19
I01
sg37
F2.86282e-10
sg20
I00
sbsg1013
g0
(g343
g2
Ntp1091
Rp1092
(dp1093
g11
I00
sg19
I01
sg37
F7.84089e-06
sg20
I00
sbsg38
(lp1094
g1005
ag1009
ag1013
ag1018
ag1001
asg1018
g0
(g103
g2
Ntp1095
Rp1096
(dp1097
g11
I00
sg19
I01
sg37
I27370
sg20
I00
sbsbag0
(g28
g2
Ntp1098
Rp1099
(dp1100
g11
I00
sg19
I01
sg20
I00
sg1001
g0
(g343
g2
Ntp1101
Rp1102
(dp1103
g11
I00
sg19
I01
sg37
F0.196
sg20
I00
sbsg1005
g0
(g343
g2
Ntp1104
Rp1105
(dp1106
g11
I00
sg19
I01
sg37
F1.00546
sg20
I00
sbsg1009
g0
(g343
g2
Ntp1107
Rp1108
(dp1109
g11
I00
sg19
I01
sg37
F1.27011e-10
sg20
I00
sbsg1013
g0
(g343
g2
Ntp1110
Rp1111
(dp1112
g11
I00
sg19
I01
sg37
F6.40239e-06
sg20
I00
sbsg38
(lp1113
g1005
ag1009
ag1013
ag1018
ag1001
asg1018
g0
(g103
g2
Ntp1114
Rp1115
(dp1116
g11
I00
sg19
I01
sg37
I38018
sg20
I00
sbsbag0
(g28
g2
Ntp1117
Rp1118
(dp1119
g11
I00
sg19
I01
sg20
I00
sg1001
g0
(g343
g2
Ntp1120
Rp1121
(dp1122
g11
I00
sg19
I01
sg37
F0.0
sg20
I00
sbsg1005
g0
(g343
g2
Ntp1123
Rp1124
(dp1125
g11
I00
sg19
I01
sg37
F1.0
sg20
I00
sbsg1009
g0
(g343
g2
Ntp1126
Rp1127
(dp1128
g11
I00
sg19
I01
sg37
F0.0
sg20
I00
sbsg1013
g0
(g343
g2
Ntp1129
Rp1130
(dp1131
g11
I00
sg19
I01
sg37
F0.0
sg20
I00
sbsg38
(lp1132
g1005
ag1009
ag1013
ag1018
ag1001
asg1018
g0
(g103
g2
Ntp1133
Rp1134
(dp1135
g11
I00
sg19
I01
sg37
I0
sg20
I00
sbsbatp1136
Rp1137
(dp1138
g11
I00
sg19
I01
sg20
I00
sg21
I1
sbsg285
g550
sg684
g0
(g33
g2
Ntp1139
Rp1140
(dp1141
g11
I00
sg19
I01
sg37
I01
sg20
I00
sbsg685
g0
(g28
g2
Ntp1142
Rp1143
(dp1144
g11
I00
sg19
I01
sg575
g0
(g103
g2
Ntp1145
Rp1146
(dp1147
g11
I00
sg19
I01
sg37
I1
sg20
I00
sbsg20
I00
sg579
g0
(g343
g2
Ntp1148
Rp1149
(dp1150
g11
I00
sg19
I01
sg37
F3.33
sg20
I00
sbsg583
g0
(g103
g2
Ntp1151
Rp1152
(dp1153
g11
I00
sg19
I01
sg37
I301
sg20
I00
sbsg587
g0
(g103
g2
Ntp1154
Rp1155
(dp1156
g11
I00
sg19
I01
sg37
I-9999
sg20
I00
sbsg591
g0
(g457
g14
(lp1157
F0.0
atp1158
Rp1159
(dp1160
g11
I00
sg19
I01
sg20
I00
sbsg596
g0
(g457
g14
(lp1161
F0.0697
aF-0.7405
aF12.38
aF-671.9
atp1162
Rp1163
(dp1164
g11
I00
sg19
I01
sg20
I00
sbsg601
g0
(g457
g14
(lp1165
F0.297
aF0.298
aF0.298
aF0.313
atp1166
Rp1167
(dp1168
g11
I00
sg19
I01
sg20
I00
sbsg645
g0
(g457
g14
(lp1169
F0.14
aF0.135
atp1170
Rp1171
(dp1172
g11
I00
sg19
I01
sg20
I00
sbsg636
g0
(g33
g2
Ntp1173
Rp1174
(dp1175
g11
I00
sg19
I01
sg37
I00
sg20
I00
sbsg38
(lp1176
g575
ag579
ag583
ag587
ag641
ag596
ag601
ag645
ag636
ag591
ag642
ag643
ag644
asg641
g0
(g343
g2
Ntp1177
Rp1178
(dp1179
g11
I00
sg19
I01
sg37
F0.0
sg20
I00
sbsg642
g0
(g343
g2
Ntp1180
Rp1181
(dp1182
g11
I00
sg19
I01
sg37
F13.33
sg20
I00
sbsg643
g0
(g103
g2
Ntp1183
Rp1184
(dp1185
g11
I00
sg19
I01
sg37
I301
sg20
I00
sbsg644
g0
(g457
g14
(lp1186
F0.0
aF0.0
atp1187
Rp1188
(dp1189
g11
I00
sg19
I01
sg20
I00
sbsbsbsS'GlobalTag'
p1190
g0
(g538
g2
Ntp1191
Rp1192
(dp1193
g38
(lp1194
S'DBParameters'
p1195
aS'connect'
p1196
aS'globaltag'
p1197
aS'RefreshEachRun'
p1198
aS'pfnPrefix'
p1199
aS'snapshotTime'
p1200
ag664
aS'pfnPostfix'
p1201
aS'RefreshAlways'
p1202
aS'ReconnectEachRun'
p1203
aS'RefreshOpenIOVs'
p1204
aS'DumpStat'
p1205
asg11
I00
sg69
S'/cvmfs/cms.cern.ch/slc7_amd64_gcc700/cms/cmssw/CMSSW_10_2_15/python/CondCore/ESSources/CondDBESSource_cfi.py'
p1206
sg20
I01
sg1197
g0
(g164
g2
Ntp1207
Rp1208
(dp1209
g11
I00
sg19
I01
sg37
S'92X_dataRun2_Prompt_v4'
p1210
sg20
I01
sbsg1198
g0
(g33
g2
Ntp1211
Rp1212
(dp1213
g11
I00
sg19
I00
sg37
I00
sg20
I00
sbsg1199
g0
(g164
g2
Ntp1214
Rp1215
(dp1216
g11
I00
sg19
I00
sg37
g283
sg20
I00
sbsg1200
g0
(g164
g2
Ntp1217
Rp1218
(dp1219
g11
I00
sg19
I01
sg37
g283
sg20
I00
sbsg664
g0
(g996
g14
(lp1220
tp1221
Rp1222
(dp1223
g11
I00
sg19
I01
sg20
I00
sg21
I1
sbsg1201
g0
(g164
g2
Ntp1224
Rp1225
(dp1226
g11
I00
sg19
I00
sg37
g283
sg20
I00
sbsg1195
g0
(g28
g2
Ntp1227
Rp1228
(dp1229
g11
I00
sg19
I01
sS'authenticationPath'
p1230
g0
(g164
g2
Ntp1231
Rp1232
(dp1233
g11
I00
sg19
I00
sg37
g283
sg20
I00
sbsg20
I00
sS'messageLevel'
p1234
g0
(g103
g2
Ntp1235
Rp1236
(dp1237
g11
I00
sg19
I00
sg37
I0
sg20
I00
sbsg38
(lp1238
g1234
aS'security'
p1239
aS'authenticationSystem'
p1240
ag1230
asg1239
g0
(g164
g2
Ntp1241
Rp1242
(dp1243
g11
I00
sg19
I00
sg37
g283
sg20
I00
sbsg1240
g0
(g103
g2
Ntp1244
Rp1245
(dp1246
g11
I00
sg19
I00
sg37
I0
sg20
I00
sbsbsg1202
g0
(g33
g2
Ntp1247
Rp1248
(dp1249
g11
I00
sg19
I00
sg37
I00
sg20
I00
sbsg40
I19
sg1196
g0
(g164
g2
Ntp1250
Rp1251
(dp1252
g11
I00
sg19
I01
sg37
S'frontier://FrontierProd/CMS_CONDITIONS'
p1253
sg20
I00
sbsg1203
g0
(g33
g2
Ntp1254
Rp1255
(dp1256
g11
I00
sg19
I00
sg37
I00
sg20
I00
sbsg285
g1190
sg1204
g0
(g33
g2
Ntp1257
Rp1258
(dp1259
g11
I00
sg19
I00
sg37
I00
sg20
I00
sbsg1205
g0
(g33
g2
Ntp1260
Rp1261
(dp1262
g11
I00
sg19
I00
sg37
I00
sg20
I00
sbsg46
S'PoolDBESSource'
p1263
sbsS'HcalTimeSlewEP'
p1264
g0
(g538
g2
Ntp1265
Rp1266
(dp1267
g38
(lp1268
S'timeSlewParametersM3'
p1269
aS'timeSlewParametersM2'
p1270
aS'appendToDataLabel'
p1271
asg11
I00
sg1269
g0
(g996
g14
(lp1272
g0
(g28
g2
Ntp1273
Rp1274
(dp1275
g11
I00
sg19
I01
sS'tspar2'
p1276
g0
(g343
g2
Ntp1277
Rp1278
(dp1279
g11
I00
sg19
I01
sg37
F0.0
sg20
I00
sbsg20
I00
sS'tspar0'
p1280
g0
(g343
g2
Ntp1281
Rp1282
(dp1283
g11
I00
sg19
I01
sg37
F12.2999
sg20
I00
sbsS'tspar1'
p1284
g0
(g343
g2
Ntp1285
Rp1286
(dp1287
g11
I00
sg19
I01
sg37
F-2.19142
sg20
I00
sbsS'tspar1_siPM'
p1288
g0
(g343
g2
Ntp1289
Rp1290
(dp1291
g11
I00
sg19
I01
sg37
F0.0
sg20
I00
sbsS'cap'
p1292
g0
(g343
g2
Ntp1293
Rp1294
(dp1295
g11
I00
sg19
I01
sg37
F6.0
sg20
I00
sbsS'tspar0_siPM'
p1296
g0
(g343
g2
Ntp1297
Rp1298
(dp1299
g11
I00
sg19
I01
sg37
F0.0
sg20
I00
sbsg38
(lp1300
g1276
ag1280
ag1284
ag1288
ag1292
ag1296
aS'tspar2_siPM'
p1301
asg1301
g0
(g343
g2
Ntp1302
Rp1303
(dp1304
g11
I00
sg19
I01
sg37
F0.0
sg20
I00
sbsbag0
(g28
g2
Ntp1305
Rp1306
(dp1307
g11
I00
sg19
I01
sg1276
g0
(g343
g2
Ntp1308
Rp1309
(dp1310
g11
I00
sg19
I01
sg37
F32.0
sg20
I00
sbsg20
I00
sg1280
g0
(g343
g2
Ntp1311
Rp1312
(dp1313
g11
I00
sg19
I01
sg37
F15.5
sg20
I00
sbsg1284
g0
(g343
g2
Ntp1314
Rp1315
(dp1316
g11
I00
sg19
I01
sg37
F-3.2
sg20
I00
sbsg1288
g0
(g343
g2
Ntp1317
Rp1318
(dp1319
g11
I00
sg19
I01
sg37
F0.0
sg20
I00
sbsg1292
g0
(g343
g2
Ntp1320
Rp1321
(dp1322
g11
I00
sg19
I01
sg37
F6.0
sg20
I00
sbsg1296
g0
(g343
g2
Ntp1323
Rp1324
(dp1325
g11
I00
sg19
I01
sg37
F0.0
sg20
I00
sbsg38
(lp1326
g1276
ag1280
ag1284
ag1288
ag1292
ag1296
ag1301
asg1301
g0
(g343
g2
Ntp1327
Rp1328
(dp1329
g11
I00
sg19
I01
sg37
F0.0
sg20
I00
sbsbag0
(g28
g2
Ntp1330
Rp1331
(dp1332
g11
I00
sg19
I01
sg1276
g0
(g343
g2
Ntp1333
Rp1334
(dp1335
g11
I00
sg19
I01
sg37
F0.0
sg20
I00
sbsg20
I00
sg1280
g0
(g343
g2
Ntp1336
Rp1337
(dp1338
g11
I00
sg19
I01
sg37
F12.2999
sg20
I00
sbsg1284
g0
(g343
g2
Ntp1339
Rp1340
(dp1341
g11
I00
sg19
I01
sg37
F-2.19142
sg20
I00
sbsg1288
g0
(g343
g2
Ntp1342
Rp1343
(dp1344
g11
I00
sg19
I01
sg37
F0.0
sg20
I00
sbsg1292
g0
(g343
g2
Ntp1345
Rp1346
(dp1347
g11
I00
sg19
I01
sg37
F6.0
sg20
I00
sbsg1296
g0
(g343
g2
Ntp1348
Rp1349
(dp1350
g11
I00
sg19
I01
sg37
F0.0
sg20
I00
sbsg38
(lp1351
g1276
ag1280
ag1284
ag1288
ag1292
ag1296
ag1301
asg1301
g0
(g343
g2
Ntp1352
Rp1353
(dp1354
g11
I00
sg19
I01
sg37
F0.0
sg20
I00
sbsbag0
(g28
g2
Ntp1355
Rp1356
(dp1357
g11
I00
sg19
I01
sg1276
g0
(g343
g2
Ntp1358
Rp1359
(dp1360
g11
I00
sg19
I01
sg37
F0.0
sg20
I00
sbsg20
I00
sg1280
g0
(g343
g2
Ntp1361
Rp1362
(dp1363
g11
I00
sg19
I01
sg37
F12.2999
sg20
I00
sbsg1284
g0
(g343
g2
Ntp1364
Rp1365
(dp1366
g11
I00
sg19
I01
sg37
F-2.19142
sg20
I00
sbsg1288
g0
(g343
g2
Ntp1367
Rp1368
(dp1369
g11
I00
sg19
I01
sg37
F0.0
sg20
I00
sbsg1292
g0
(g343
g2
Ntp1370
Rp1371
(dp1372
g11
I00
sg19
I01
sg37
F6.0
sg20
I00
sbsg1296
g0
(g343
g2
Ntp1373
Rp1374
(dp1375
g11
I00
sg19
I01
sg37
F0.0
sg20
I00
sbsg38
(lp1376
g1276
ag1280
ag1284
ag1288
ag1292
ag1296
ag1301
asg1301
g0
(g343
g2
Ntp1377
Rp1378
(dp1379
g11
I00
sg19
I01
sg37
F0.0
sg20
I00
sbsbatp1380
Rp1381
(dp1382
g11
I00
sg19
I01
sg20
I00
sg21
I1
sbsg1270
g0
(g996
g14
(lp1383
g0
(g28
g2
Ntp1384
Rp1385
(dp1386
g11
I00
sg19
I01
sg20
I00
sS'slope'
p1387
g0
(g343
g2
Ntp1388
Rp1389
(dp1390
g11
I00
sg19
I01
sg37
F-3.178648
sg20
I00
sbsS'tmax'
p1391
g0
(g343
g2
Ntp1392
Rp1393
(dp1394
g11
I00
sg19
I01
sg37
F16.0
sg20
I00
sbsS'tzero'
p1395
g0
(g343
g2
Ntp1396
Rp1397
(dp1398
g11
I00
sg19
I01
sg37
F23.960177
sg20
I00
sbsg38
(lp1399
g1387
ag1391
ag1395
asbag0
(g28
g2
Ntp1400
Rp1401
(dp1402
g11
I00
sg19
I01
sg20
I00
sg1387
g0
(g343
g2
Ntp1403
Rp1404
(dp1405
g11
I00
sg19
I01
sg37
F-1.556668
sg20
I00
sbsg1391
g0
(g343
g2
Ntp1406
Rp1407
(dp1408
g11
I00
sg19
I01
sg37
F10.0
sg20
I00
sbsg1395
g0
(g343
g2
Ntp1409
Rp1410
(dp1411
g11
I00
sg19
I01
sg37
F13.307784
sg20
I00
sbsg38
(lp1412
g1387
ag1391
ag1395
asbag0
(g28
g2
Ntp1413
Rp1414
(dp1415
g11
I00
sg19
I01
sg20
I00
sg1387
g0
(g343
g2
Ntp1416
Rp1417
(dp1418
g11
I00
sg19
I01
sg37
F-1.075824
sg20
I00
sbsg1391
g0
(g343
g2
Ntp1419
Rp1420
(dp1421
g11
I00
sg19
I01
sg37
F6.25
sg20
I00
sbsg1395
g0
(g343
g2
Ntp1422
Rp1423
(dp1424
g11
I00
sg19
I01
sg37
F9.109694
sg20
I00
sbsg38
(lp1425
g1387
ag1391
ag1395
asbatp1426
Rp1427
(dp1428
g11
I00
sg19
I01
sg20
I00
sg21
I1
sbsg20
I00
sg40
I23
sg69
S'/cvmfs/cms.cern.ch/slc7_amd64_gcc700/cms/cmssw/CMSSW_10_2_15/python/CalibCalorimetry/HcalPlugins/HcalTimeSlew_cff.py'
p1429
sg1271
g0
(g164
g2
Ntp1430
Rp1431
(dp1432
g11
I00
sg19
I01
sg37
S'HBHE'
p1433
sg20
I00
sbsg285
g1264
sg46
g1264
sbssg329
g320
sg537
g540
sg502
g504
sS'source'
p1434
g320
sS'CastorDbProducer'
p1435
g0
(g331
g2
Ntp1436
Rp1437
(dp1438
g38
(lp1439
g1271
asg11
I00
sg1271
g0
(g164
g2
Ntp1440
Rp1441
(dp1442
g11
I00
sg19
I01
sg37
g283
sg20
I00
sbsg20
I00
sg40
I53
sg69
g70
sg285
g1435
sg46
g1435
sbsS'_Process__vpsets'
p1443
(dp1444
sS'_Process__name'
p1445
S'analysis'
p1446
sg1264
g1266
sS'es_prefer_hcalHardcode'
p1447
g0
(cFWCore.ParameterSet.Modules
ESPrefer
p1448
g2
Ntp1449
Rp1450
(dp1451
g38
(lp1452
sg11
I00
sg20
I00
sS'_targetLabel'
p1453
g550
sg40
I89
sg69
g70
sg285
g1447
sg46
g767
sbsS'_Process__subProcesses'
p1454
(lp1455
sS'_cloneToObjectDict'
p1456
(dp1457
I140167889335376
g480
sI140167889335504
g333
sI140167891578000
g497
sI140167889290832
g1437
sI140167888631632
g540
sI140167888631696
g258
sI140167889334352
g0
(g331
g2
Ntp1458
Rp1459
(dp1460
g38
(lp1461
g412
aS'LorentzAngleDeconvMode'
p1462
aS'LorentzAnglePeakMode'
p1463
asg11
I00
sg20
I00
sg40
I53
sg69
g70
sg412
g0
(g28
g2
Ntp1464
Rp1465
(dp1466
g11
I00
sg19
I01
sg20
I00
sg418
g0
(g164
g2
Ntp1467
Rp1468
(dp1469
g11
I00
sg19
I00
sg37
g283
sg20
I00
sbsg422
g0
(g164
g2
Ntp1470
Rp1471
(dp1472
g11
I00
sg19
I01
sg37
g426
sg20
I00
sbsg38
(lp1473
g422
ag418
asbsg285
S'siStripLorentzAngleDepESProducer'
p1474
sg1463
g0
(g28
g2
Ntp1475
Rp1476
(dp1477
g11
I00
sg19
I01
sg20
I00
sg418
g0
(g164
g2
Ntp1478
Rp1479
(dp1480
g11
I00
sg19
I00
sg37
g434
sg20
I00
sbsg422
g0
(g164
g2
Ntp1481
Rp1482
(dp1483
g11
I00
sg19
I01
sg37
S'SiStripLorentzAngleRcd'
p1484
sg20
I00
sbsg38
(lp1485
g422
ag418
asbsg46
S'SiStripLorentzAngleDepESProducer'
p1486
sg1462
g0
(g28
g2
Ntp1487
Rp1488
(dp1489
g11
I00
sg19
I01
sg20
I00
sg418
g0
(g164
g2
Ntp1490
Rp1491
(dp1492
g11
I00
sg19
I00
sg37
g446
sg20
I00
sbsg422
g0
(g164
g2
Ntp1493
Rp1494
(dp1495
g11
I00
sg19
I01
sg37
g1484
sg20
I00
sbsg38
(lp1496
g422
ag418
asbsbsI140167889336848
g0
(g331
g2
Ntp1497
Rp1498
(dp1499
g38
(lp1500
S'PreFilter'
p1501
ag337
aS'NSigmaInside'
p1502
asg11
I00
sg20
I00
sg69
g70
sg337
g0
(g164
g2
Ntp1503
Rp1504
(dp1505
g11
I00
sg19
I01
sg37
S'StandardMatcher'
p1506
sg20
I00
sbsg1501
g0
(g33
g2
Ntp1507
Rp1508
(dp1509
g11
I00
sg19
I01
sg37
I00
sg20
I00
sbsg40
I53
sg1502
g0
(g343
g2
Ntp1510
Rp1511
(dp1512
g11
I00
sg19
I01
sg37
F3.0
sg20
I00
sbsg285
S'SiStripRecHitMatcherESProducer'
p1513
sg46
g1513
sbsI140167889201744
g454
sI140167889336976
g0
(g331
g2
Ntp1514
Rp1515
(dp1516
g38
(lp1517
sg11
I00
sg20
I00
sg40
I53
sg69
g70
sg285
S'sistripconn'
p1518
sg46
S'SiStripConnectivity'
p1519
sbsI140167889259856
g552
sI140167889292432
g0
(g331
g2
Ntp1520
Rp1521
(dp1522
g38
(lp1523
S'printDebug'
p1524
ag1271
aS'APVGain'
p1525
aS'AutomaticNormalization'
p1526
asg11
I00
sg1271
g0
(g164
g2
Ntp1527
Rp1528
(dp1529
g11
I00
sg19
I01
sg37
g283
sg20
I00
sbsg20
I00
sg1526
g0
(g33
g2
Ntp1530
Rp1531
(dp1532
g11
I00
sg19
I01
sg37
I00
sg20
I00
sbsg40
I53
sg1524
g0
(g33
g2
Ntp1533
Rp1534
(dp1535
g11
I00
sg19
I00
sg37
I00
sg20
I00
sbsg69
g70
sg1525
g0
(g996
g14
(lp1536
g0
(g28
g2
Ntp1537
Rp1538
(dp1539
g11
I00
sg19
I01
sg20
I00
sS'Label'
p1540
g0
(g164
g2
Ntp1541
Rp1542
(dp1543
g11
I00
sg19
I00
sg37
g283
sg20
I00
sbsS'Record'
p1544
g0
(g164
g2
Ntp1545
Rp1546
(dp1547
g11
I00
sg19
I01
sg37
S'SiStripApvGainRcd'
p1548
sg20
I00
sbsS'NormalizationFactor'
p1549
g0
(g343
g2
Ntp1550
Rp1551
(dp1552
g11
I00
sg19
I00
sg37
F1.0
sg20
I00
sbsg38
(lp1553
g1544
ag1549
ag1540
asbag0
(g28
g2
Ntp1554
Rp1555
(dp1556
g11
I00
sg19
I01
sg20
I00
sg1540
g0
(g164
g2
Ntp1557
Rp1558
(dp1559
g11
I00
sg19
I00
sg37
g283
sg20
I00
sbsg1544
g0
(g164
g2
Ntp1560
Rp1561
(dp1562
g11
I00
sg19
I01
sg37
S'SiStripApvGain2Rcd'
p1563
sg20
I00
sbsg1549
g0
(g343
g2
Ntp1564
Rp1565
(dp1566
g11
I00
sg19
I00
sg37
F1.0
sg20
I00
sbsg38
(lp1567
g1544
ag1549
ag1540
asbatp1568
Rp1569
(dp1570
g11
I00
sg19
I01
sg20
I00
sg21
I1
sbsg285
S'siStripGainESProducer'
p1571
sg46
S'SiStripGainESProducer'
p1572
sbsI140167889337552
g269
sI140167889201808
g522
sI140167888586576
g513
sI140167889337808
g0
(g331
g2
Ntp1573
Rp1574
(dp1575
g38
(lp1576
S'ListOfRecordToMerge'
p1577
asg11
I00
sg20
I01
sg40
I53
sg69
g70
sg1577
g0
(g996
g14
(lp1578
g0
(g28
g2
Ntp1579
Rp1580
(dp1581
g11
I00
sg19
I01
sg20
I00
sg422
g0
(g164
g2
Ntp1582
Rp1583
(dp1584
g11
I00
sg19
I01
sg37
S'SiPixelQualityFromDbRcd'
p1585
sg20
I00
sbsS'tag'
p1586
g0
(g164
g2
Ntp1587
Rp1588
(dp1589
g11
I00
sg19
I01
sg37
g283
sg20
I00
sbsg38
(lp1590
g422
ag1586
asbag0
(g28
g2
Ntp1591
Rp1592
(dp1593
g11
I00
sg19
I01
sg20
I00
sg422
g0
(g164
g2
Ntp1594
Rp1595
(dp1596
g11
I00
sg19
I01
sg37
S'SiPixelDetVOffRcd'
p1597
sg20
I00
sbsg1586
g0
(g164
g2
Ntp1598
Rp1599
(dp1600
g11
I00
sg19
I01
sg37
g283
sg20
I00
sbsg38
(lp1601
g422
ag1586
asbatp1602
Rp1603
(dp1604
g11
I00
sg19
I01
sg20
I00
sg21
I1
sbsg285
S'siPixelQualityESProducer'
p1605
sg46
S'SiPixelQualityESProducer'
p1606
sbsI140167889200656
g1266
sI140167891640400
g1192
sI140167888584848
g504
sI140167888585168
g0
(g331
g2
Ntp1607
Rp1608
(dp1609
g38
(lp1610
g1271
aS'PrintDebugOutput'
p1611
aS'ThresholdForReducedGranularity'
p1612
aS'UseEmptyRunInfo'
p1613
aS'ReduceGranularity'
p1614
ag1577
asg11
I00
sg1271
g0
(g164
g2
Ntp1615
Rp1616
(dp1617
g11
I00
sg19
I01
sg37
g283
sg20
I00
sbsg20
I01
sg40
I53
sg69
g70
sg1612
g0
(g343
g2
Ntp1618
Rp1619
(dp1620
g11
I00
sg19
I01
sg37
F0.3
sg20
I00
sbsg285
S'siStripQualityESProducer'
p1621
sg1613
g0
(g33
g2
Ntp1622
Rp1623
(dp1624
g11
I00
sg19
I01
sg37
I00
sg20
I00
sbsg1614
g0
(g33
g2
Ntp1625
Rp1626
(dp1627
g11
I00
sg19
I01
sg37
I00
sg20
I00
sbsg1577
g0
(g996
g14
(lp1628
g0
(g28
g2
Ntp1629
Rp1630
(dp1631
g11
I00
sg19
I01
sg20
I00
sg422
g0
(g164
g2
Ntp1632
Rp1633
(dp1634
g11
I00
sg19
I01
sg37
S'SiStripDetVOffRcd'
p1635
sg20
I00
sbsg1586
g0
(g164
g2
Ntp1636
Rp1637
(dp1638
g11
I00
sg19
I01
sg37
g283
sg20
I00
sbsg38
(lp1639
g422
ag1586
asbag0
(g28
g2
Ntp1640
Rp1641
(dp1642
g11
I00
sg19
I01
sg20
I00
sg422
g0
(g164
g2
Ntp1643
Rp1644
(dp1645
g11
I00
sg19
I01
sg37
S'SiStripDetCablingRcd'
p1646
sg20
I00
sbsg1586
g0
(g164
g2
Ntp1647
Rp1648
(dp1649
g11
I00
sg19
I01
sg37
g283
sg20
I00
sbsg38
(lp1650
g422
ag1586
asbag0
(g28
g2
Ntp1651
Rp1652
(dp1653
g11
I00
sg19
I01
sg20
I00
sg422
g0
(g164
g2
Ntp1654
Rp1655
(dp1656
g11
I00
sg19
I01
sg37
S'RunInfoRcd'
p1657
sg20
I00
sbsg1586
g0
(g164
g2
Ntp1658
Rp1659
(dp1660
g11
I00
sg19
I01
sg37
g283
sg20
I00
sbsg38
(lp1661
g422
ag1586
asbag0
(g28
g2
Ntp1662
Rp1663
(dp1664
g11
I00
sg19
I01
sg20
I00
sg422
g0
(g164
g2
Ntp1665
Rp1666
(dp1667
g11
I00
sg19
I01
sg37
S'SiStripBadChannelRcd'
p1668
sg20
I00
sbsg1586
g0
(g164
g2
Ntp1669
Rp1670
(dp1671
g11
I00
sg19
I01
sg37
g283
sg20
I00
sbsg38
(lp1672
g422
ag1586
asbag0
(g28
g2
Ntp1673
Rp1674
(dp1675
g11
I00
sg19
I01
sg20
I00
sg422
g0
(g164
g2
Ntp1676
Rp1677
(dp1678
g11
I00
sg19
I01
sg37
S'SiStripBadFiberRcd'
p1679
sg20
I00
sbsg1586
g0
(g164
g2
Ntp1680
Rp1681
(dp1682
g11
I00
sg19
I01
sg37
g283
sg20
I00
sbsg38
(lp1683
g422
ag1586
asbag0
(g28
g2
Ntp1684
Rp1685
(dp1686
g11
I00
sg19
I01
sg20
I00
sg422
g0
(g164
g2
Ntp1687
Rp1688
(dp1689
g11
I00
sg19
I01
sg37
S'SiStripBadModuleRcd'
p1690
sg20
I00
sbsg1586
g0
(g164
g2
Ntp1691
Rp1692
(dp1693
g11
I00
sg19
I01
sg37
g283
sg20
I00
sbsg38
(lp1694
g422
ag1586
asbag0
(g28
g2
Ntp1695
Rp1696
(dp1697
g11
I00
sg19
I01
sg20
I00
sg422
g0
(g164
g2
Ntp1698
Rp1699
(dp1700
g11
I00
sg19
I01
sg37
S'SiStripBadStripRcd'
p1701
sg20
I00
sbsg1586
g0
(g164
g2
Ntp1702
Rp1703
(dp1704
g11
I00
sg19
I01
sg37
g283
sg20
I00
sbsg38
(lp1705
g422
ag1586
asbatp1706
Rp1707
(dp1708
g11
I00
sg19
I01
sg20
I00
sg21
I1
sbsg46
S'SiStripQualityESProducer'
p1709
sg1611
g0
(g33
g2
Ntp1710
Rp1711
(dp1712
g11
I00
sg19
I01
sg37
I00
sg20
I00
sbsbsI140167889289808
g1450
sI140167889335056
g409
ssg1571
g1521
sg1518
g1515
sS'_Process__esprefers'
p1713
(dp1714
g1447
g1450
ssg1513
g1498
sS'_Process__schedule'
p1715
Nsg1621
g1608
sg286
g269
sS'_Process__outputmodules'
p1716
(dp1717
sS'_Process__analyzers'
p1718
(dp1719
g286
g269
ssS'_Process__InExtendCall'
p1720
I00
sg1474
g1459
sS'_Process__modifiers'
p1721
(tsS'_Process__producers'
p1722
(dp1723
sg1605
g1574
sg1190
g1192
sS'_Process__filters'
p1724
(dp1725
sg550
g552
sS'_Process__looper'
p1726
NsS'_Process__endpaths'
p1727
g0
(cFWCore.ParameterSet.DictTypes
SortedKeysDict
p1728
c__builtin__
dict
p1729
(dp1730
tp1731
Rp1732
(dp1733
S'list'
p1734
(lp1735
sbsS'_Process__esproducers'
p1736
(dp1737
g1474
g1459
sg478
g480
sg1513
g1498
sg1605
g1574
sg520
g522
sg1571
g1521
sg1518
g1515
sg330
g333
sg1435
g1437
sg495
g497
sg407
g409
sg1621
g1608
ssS'_Process__tasks'
p1738
(dp1739
sS'_Process__paths'
p1740
g0
(g1728
g1729
(dp1741
g255
g258
stp1742
Rp1743
(dp1744
g1734
(lp1745
g255
asbsS'_Process__partialschedules'
p1746
(dp1747
sg511
g513
sS'_Process__isStrict'
p1748
I00
sb.